target datalayout = "e-m:e-p270:32:32-p271:32:32-p272:64:64-i64:64-i128:128-f80:128-n8:16:32:64-S128"
target triple = "x86_64-pc-linux-gnu"

%class.AstNode = type { ptr, ptr, ptr, ptr, ptr, ptr, ptr, ptr, %class.VNType, %struct.anon, i8, i32, ptr, ptr, ptr, ptr, %class.VNUser, i32, i32, %class.VNUser, %class.VNUser, i32, i32, %class.VNUser }
%class.VNType = type { i16 }
%struct.anon = type { i8 }
%class.VNUser = type { %union.anon }
%union.anon = type { ptr }
%class.VNVisitor = type { %class.VNVisitorConst, %class.VNDeleter }
%class.VNVisitorConst = type { ptr }
%class.VNDeleter = type { %"class.std::vector.102" }
%"class.std::vector.102" = type { %"struct.std::_Vector_base.103" }
%"struct.std::_Vector_base.103" = type { %"struct.std::_Vector_base<AstNode *, std::allocator<AstNode *>>::_Vector_impl" }
%"struct.std::_Vector_base<AstNode *, std::allocator<AstNode *>>::_Vector_impl" = type { %"struct.std::_Vector_base<AstNode *, std::allocator<AstNode *>>::_Vector_impl_data" }
%"struct.std::_Vector_base<AstNode *, std::allocator<AstNode *>>::_Vector_impl_data" = type { ptr, ptr, ptr }
%class.VNUser1InUse = type { i8 }
%class.ForkVisitor = type { %class.VNVisitor, %class.VNUser1InUse, i8, i8, ptr, ptr }
%class.VRestorer.134 = type { ptr, ptr }

; Function Attrs: mustprogress nounwind uwtable
define linkonce_odr dso_local noundef ptr @_ZNK7AstNode4op2pEv(ptr noundef nonnull align 8 dereferenceable(152) %0) #5 comdat align 2 {
  %2 = alloca ptr, align 8
  store ptr %0, ptr %2, align 8
  %3 = load ptr, ptr %2, align 8
  %4 = getelementptr inbounds %class.AstNode, ptr %3, i32 0, i32 4
  %5 = load ptr, ptr %4, align 8
  ret ptr %5
}

; Function Attrs: mustprogress uwtable
define linkonce_odr dso_local noundef ptr @_ZN7AstFork12unlinkFrBackEP10VNRelinker(ptr noundef nonnull align 8 dereferenceable(192) %0, ptr noundef %1) #4 comdat align 2 {
  %3 = alloca ptr, align 8
  %4 = alloca ptr, align 8
  store ptr %0, ptr %3, align 8
  store ptr %1, ptr %4, align 8
  %5 = load ptr, ptr %3, align 8
  %6 = load ptr, ptr %4, align 8
  %7 = call noundef ptr @_ZN7AstNode12unlinkFrBackEP10VNRelinker(ptr noundef nonnull align 8 dereferenceable(152) %5, ptr noundef %6)
  ret ptr %7
}

; Function Attrs: mustprogress nounwind uwtable
define linkonce_odr dso_local void @_ZN9VRestorerIP7AstForkED2Ev(ptr noundef nonnull align 8 dereferenceable(16) %0) unnamed_addr #5 comdat align 2 {
  %2 = alloca ptr, align 8
  store ptr %0, ptr %2, align 8
  %3 = load ptr, ptr %2, align 8
  %4 = getelementptr inbounds %class.VRestorer.134, ptr %3, i32 0, i32 1
  %5 = load ptr, ptr %4, align 8
  %6 = getelementptr inbounds %class.VRestorer.134, ptr %3, i32 0, i32 0
  %7 = load ptr, ptr %6, align 8
  store ptr %5, ptr %7, align 8
  ret void
}

; Function Attrs: mustprogress nounwind uwtable
define linkonce_odr dso_local noundef ptr @_ZNK7AstFork6stmtspEv(ptr noundef nonnull align 8 dereferenceable(192) %0) #5 comdat align 2 {
  %2 = alloca ptr, align 8
  store ptr %0, ptr %2, align 8
  %3 = load ptr, ptr %2, align 8
  %4 = call noundef ptr @_ZNK7AstNode4op2pEv(ptr noundef nonnull align 8 dereferenceable(152) %3)
  ret ptr %4
}

; Function Attrs: mustprogress uwtable
define linkonce_odr dso_local void @_ZN14VNVisitorConst20iterateChildrenConstEP7AstNode(ptr noundef nonnull align 8 dereferenceable(8) %0, ptr noundef %1) #4 comdat align 2 {
  %3 = alloca ptr, align 8
  %4 = alloca ptr, align 8
  store ptr %0, ptr %3, align 8
  store ptr %1, ptr %4, align 8
  %5 = load ptr, ptr %3, align 8
  %6 = load ptr, ptr %4, align 8
  call void @_ZN7AstNode20iterateChildrenConstER14VNVisitorConst(ptr noundef nonnull align 8 dereferenceable(152) %6, ptr noundef nonnull align 8 dereferenceable(8) %5)
  ret void
}

; Function Attrs: mustprogress nounwind uwtable
define linkonce_odr dso_local void @_ZN9VRestorerIP7AstForkEC2ERS1_(ptr noundef nonnull align 8 dereferenceable(16) %0, ptr noundef nonnull align 8 dereferenceable(8) %1) unnamed_addr #5 comdat align 2 {
  %3 = alloca ptr, align 8
  %4 = alloca ptr, align 8
  store ptr %0, ptr %3, align 8
  store ptr %1, ptr %4, align 8
  %5 = load ptr, ptr %3, align 8
  %6 = getelementptr inbounds %class.VRestorer.134, ptr %5, i32 0, i32 0
  %7 = load ptr, ptr %4, align 8
  store ptr %7, ptr %6, align 8
  %8 = getelementptr inbounds %class.VRestorer.134, ptr %5, i32 0, i32 1
  %9 = load ptr, ptr %4, align 8
  %10 = load ptr, ptr %9, align 8
  store ptr %10, ptr %8, align 8
  ret void
}

; Function Attrs: mustprogress uwtable
define internal void @_ZZN7V3Sched14transformForksEP10AstNetlistEN11ForkVisitor5visitEP7AstFork(ptr noundef nonnull align 8 dereferenceable(56) %0, ptr noundef %1) unnamed_addr #4 align 2 personality ptr @__gxx_personality_v0 {
  %3 = alloca ptr, align 8
  %4 = alloca ptr, align 8
  %5 = alloca %class.VRestorer.134, align 8
  %6 = alloca ptr, align 8
  %7 = alloca i32, align 4
  %8 = alloca ptr, align 8
  store ptr %0, ptr %3, align 8
  store ptr %1, ptr %4, align 8
  %9 = load ptr, ptr %3, align 8
  %10 = getelementptr inbounds %class.ForkVisitor, ptr %9, i32 0, i32 4
  %11 = load ptr, ptr %10, align 8
  %12 = icmp ne ptr %11, null
  br i1 %12, label %13, label %14

13:                                               ; preds = %2
  br label %49

14:                                               ; preds = %2
  %15 = getelementptr inbounds %class.ForkVisitor, ptr %9, i32 0, i32 4
  call void @_ZN9VRestorerIP7AstForkEC2ERS1_(ptr noundef nonnull align 8 dereferenceable(16) %5, ptr noundef nonnull align 8 dereferenceable(8) %15)
  %16 = load ptr, ptr %4, align 8
  %17 = getelementptr inbounds %class.ForkVisitor, ptr %9, i32 0, i32 4
  store ptr %16, ptr %17, align 8
  %18 = load ptr, ptr %4, align 8
  invoke void @_ZN14VNVisitorConst20iterateChildrenConstEP7AstNode(ptr noundef nonnull align 8 dereferenceable(8) %9, ptr noundef %18)
          to label %19 unwind label %31

19:                                               ; preds = %14
  %20 = load ptr, ptr %4, align 8
  %21 = invoke noundef ptr @_ZNK7AstFork6stmtspEv(ptr noundef nonnull align 8 dereferenceable(192) %20)
          to label %22 unwind label %31

22:                                               ; preds = %19
  store ptr %21, ptr %8, align 8
  %23 = load ptr, ptr %8, align 8
  %24 = icmp ne ptr %23, null
  br i1 %24, label %25, label %35

25:                                               ; preds = %22
  %26 = load ptr, ptr %4, align 8
  %27 = load ptr, ptr %8, align 8
  %28 = invoke noundef ptr @_ZN7AstNode20unlinkFrBackWithNextEP10VNRelinker(ptr noundef nonnull align 8 dereferenceable(152) %27, ptr noundef null)
          to label %29 unwind label %31

29:                                               ; preds = %25
  invoke void @_ZN7AstNode11addNextHereEPS_(ptr noundef nonnull align 8 dereferenceable(152) %26, ptr noundef %28)
          to label %30 unwind label %31

30:                                               ; preds = %29
  br label %35

31:                                               ; preds = %40, %37, %29, %25, %19, %14
  %32 = landingpad { ptr, i32 }
          cleanup
  %33 = extractvalue { ptr, i32 } %32, 0
  store ptr %33, ptr %6, align 8
  %34 = extractvalue { ptr, i32 } %32, 1
  store i32 %34, ptr %7, align 4
  call void @_ZN9VRestorerIP7AstForkED2Ev(ptr noundef nonnull align 8 dereferenceable(16) %5) #3
  br label %50

35:                                               ; preds = %30, %22
  br label %36

36:                                               ; preds = %35
  br label %37

37:                                               ; preds = %36
  %38 = load ptr, ptr %4, align 8
  %39 = invoke noundef ptr @_ZN7AstFork12unlinkFrBackEP10VNRelinker(ptr noundef nonnull align 8 dereferenceable(192) %38, ptr noundef null)
          to label %40 unwind label %31

40:                                               ; preds = %37
  invoke void @_ZN7AstNode10deleteTreeEv(ptr noundef nonnull align 8 dereferenceable(152) %39)
          to label %41 unwind label %31

41:                                               ; preds = %40
  br label %42

42:                                               ; preds = %41
  br label %43

43:                                               ; preds = %42
  br label %44

44:                                               ; preds = %43
  store ptr null, ptr %4, align 8
  br label %45

45:                                               ; preds = %44
  br label %46

46:                                               ; preds = %45
  br label %47

47:                                               ; preds = %46
  br label %48

48:                                               ; preds = %47
  call void @_ZN9VRestorerIP7AstForkED2Ev(ptr noundef nonnull align 8 dereferenceable(16) %5) #3
  br label %49

49:                                               ; preds = %48, %13
  ret void

50:                                               ; preds = %31
  %51 = load ptr, ptr %6, align 8
  %52 = load i32, ptr %7, align 4
  %53 = insertvalue { ptr, i32 } poison, ptr %51, 0
  %54 = insertvalue { ptr, i32 } %53, i32 %52, 1
  resume { ptr, i32 } %54
}