; Function Attrs: mustprogress uwtable
define internal void @_ZZN7V3Sched14transformForksEP10AstNetlistEN11ForkVisitor5visitEP7AstFork(ptr noundef nonnull align 8 dereferenceable(56) %0, ptr noundef %1) unnamed_addr #3 align 2 personality ptr @__gxx_personality_v0 {
  %3 = getelementptr inbounds i8, ptr %0, i64 40
  %4 = load ptr, ptr %3, align 8
  %.not = icmp eq ptr %4, null
  br i1 %.not, label %5, label %16

5:                                                ; preds = %2
  store ptr %1, ptr %3, align 8
  invoke void @_ZN7AstNode20iterateChildrenConstER14VNVisitorConst(ptr noundef nonnull align 8 dereferenceable(152) %1, ptr noundef nonnull align 8 dereferenceable(8) %0)
          to label %_ZN14VNVisitorConst20iterateChildrenConstEP7AstNode.exit unwind label %11

_ZN14VNVisitorConst20iterateChildrenConstEP7AstNode.exit: ; preds = %5
  %6 = getelementptr inbounds i8, ptr %1, i64 32
  %7 = load ptr, ptr %6, align 8
  %.not9 = icmp eq ptr %7, null
  br i1 %.not9, label %13, label %8

8:                                                ; preds = %_ZN14VNVisitorConst20iterateChildrenConstEP7AstNode.exit
  %9 = invoke noundef ptr @_ZN7AstNode20unlinkFrBackWithNextEP10VNRelinker(ptr noundef nonnull align 8 dereferenceable(152) %7, ptr noundef null)
          to label %10 unwind label %11

10:                                               ; preds = %8
  invoke void @_ZN7AstNode11addNextHereEPS_(ptr noundef nonnull align 8 dereferenceable(152) %1, ptr noundef %9)
          to label %13 unwind label %11

11:                                               ; preds = %13, %5, %_ZN7AstFork12unlinkFrBackEP10VNRelinker.exit, %10, %8
  %12 = landingpad { ptr, i32 }
          cleanup
  store ptr null, ptr %3, align 8
  resume { ptr, i32 } %12

13:                                               ; preds = %10, %_ZN14VNVisitorConst20iterateChildrenConstEP7AstNode.exit
  %14 = invoke noundef ptr @_ZN7AstNode12unlinkFrBackEP10VNRelinker(ptr noundef nonnull align 8 dereferenceable(152) %1, ptr noundef null)
          to label %_ZN7AstFork12unlinkFrBackEP10VNRelinker.exit unwind label %11

_ZN7AstFork12unlinkFrBackEP10VNRelinker.exit:     ; preds = %13
  invoke void @_ZN7AstNode10deleteTreeEv(ptr noundef nonnull align 8 dereferenceable(152) %14)
          to label %15 unwind label %11

15:                                               ; preds = %_ZN7AstFork12unlinkFrBackEP10VNRelinker.exit
  store ptr null, ptr %3, align 8
  br label %16

16:                                               ; preds = %2, %15
  ret void
}